target datalayout = "e-m:e-p270:32:32-p271:32:32-p272:64:64-i64:64-i128:128-f80:128-n8:16:32:64-S128"
target triple = "x86_64-pc-linux-gnu"

; Function Attrs: nounwind uwtable
define dso_local i32 @print_config_from_gitmodules(ptr noundef %0, ptr noundef %1) #0 {
  %3 = alloca i32, align 4
  %4 = alloca ptr, align 8
  %5 = alloca ptr, align 8
  %6 = alloca i32, align 4
  %7 = alloca ptr, align 8
  %8 = alloca i32, align 4
  store ptr %0, ptr %4, align 8, !tbaa !31
  store ptr %1, ptr %5, align 8, !tbaa !13
  call void @llvm.lifetime.start.p0(i64 4, ptr %6) #9
  call void @llvm.lifetime.start.p0(i64 8, ptr %7) #9
  %9 = load ptr, ptr %5, align 8, !tbaa !13
  %10 = call i32 @git_config_parse_key(ptr noundef %9, ptr noundef %7, ptr noundef null)
  store i32 %10, ptr %6, align 4, !tbaa !17
  %11 = load i32, ptr %6, align 4, !tbaa !17
  %12 = icmp slt i32 %11, 0
  br i1 %12, label %13, label %14

13:                                               ; preds = %2
  store i32 1, ptr %3, align 4
  store i32 1, ptr %8, align 4
  br label %18

14:                                               ; preds = %2
  %15 = load ptr, ptr %4, align 8, !tbaa !31
  %16 = load ptr, ptr %7, align 8, !tbaa !13
  call void @config_from_gitmodules(ptr noundef @config_print_callback, ptr noundef %15, ptr noundef %16)
  %17 = load ptr, ptr %7, align 8, !tbaa !13
  call void @free(ptr noundef %17) #9
  store i32 0, ptr %3, align 4
  store i32 1, ptr %8, align 4
  br label %18

18:                                               ; preds = %14, %13
  call void @llvm.lifetime.end.p0(i64 8, ptr %7) #9
  call void @llvm.lifetime.end.p0(i64 4, ptr %6) #9
  %19 = load i32, ptr %3, align 4
  ret i32 %19
}