; Function Attrs: nounwind uwtable
define dso_local range(i32 0, 2) i32 @print_config_from_gitmodules(ptr noundef %0, ptr noundef %1) local_unnamed_addr #0 {
  %3 = alloca ptr, align 8
  call void @llvm.lifetime.start.p0(i64 8, ptr nonnull %3) #15
  %4 = call i32 @git_config_parse_key(ptr noundef %1, ptr noundef nonnull %3, ptr noundef null) #15
  %5 = icmp slt i32 %4, 0
  br i1 %5, label %9, label %6

6:                                                ; preds = %2
  %7 = load ptr, ptr %3, align 8, !tbaa !102
  call fastcc void @config_from_gitmodules(ptr noundef nonnull @config_print_callback, ptr noundef %0, ptr noundef %7)
  %8 = load ptr, ptr %3, align 8, !tbaa !102
  call void @free(ptr noundef %8) #15
  br label %9

9:                                                ; preds = %2, %6
  %.0 = phi i32 [ 0, %6 ], [ 1, %2 ]
  call void @llvm.lifetime.end.p0(i64 8, ptr nonnull %3) #15
  ret i32 %.0
}